target datalayout = "e-m:e-p270:32:32-p271:32:32-p272:64:64-i64:64-i128:128-f80:128-n8:16:32:64-S128"
target triple = "x86_64-pc-linux-gnu"

%struct.MovTextContext = type { ptr, ptr, ptr, ptr, ptr, i32, i32, %struct.StyleBox, %struct.AVBPrint, %struct.HighlightBox, %struct.HilightcolorBox, i8, %struct.StyleBox, i16, ptr, i32, double, i32 }
%struct.AVBPrint = type { ptr, i32, i32, i32, [1 x i8], [1000 x i8] }
%struct.HighlightBox = type { i16, i16 }
%struct.HilightcolorBox = type { i32 }
%struct.StyleBox = type { i16, i16, i8, i16, i8, i32 }
%struct.ASSStyle = type { ptr, ptr, i32, i32, i32, i32, i32, i32, i32, i32, i32, float, float, float, float, i32, float, float, i32, i32, i32, i32, i32, i32 }

; Function Attrs: nounwind uwtable
define internal zeroext i16 @find_font_id(ptr noundef %0, ptr noundef %1) #1 {
  %3 = alloca i16, align 2
  %4 = alloca ptr, align 8
  %5 = alloca ptr, align 8
  %6 = alloca i32, align 4
  %7 = alloca i32, align 4
  store ptr %0, ptr %4, align 8, !tbaa !29
  store ptr %1, ptr %5, align 8, !tbaa !43
  %8 = load ptr, ptr %5, align 8, !tbaa !43
  %9 = icmp ne ptr %8, null
  br i1 %9, label %11, label %10

10:                                               ; preds = %2
  store i16 1, ptr %3, align 2
  br label %41

11:                                               ; preds = %2
  call void @llvm.lifetime.start.p0(i64 4, ptr %6) #11
  store i32 0, ptr %6, align 4, !tbaa !42
  br label %12

12:                                               ; preds = %35, %11
  %13 = load i32, ptr %6, align 4, !tbaa !42
  %14 = load ptr, ptr %4, align 8, !tbaa !29
  %15 = getelementptr inbounds nuw %struct.MovTextContext, ptr %14, i32 0, i32 15
  %16 = load i32, ptr %15, align 8, !tbaa !89
  %17 = icmp slt i32 %13, %16
  br i1 %17, label %19, label %18

18:                                               ; preds = %12
  store i32 2, ptr %7, align 4
  br label %38

19:                                               ; preds = %12
  %20 = load ptr, ptr %5, align 8, !tbaa !43
  %21 = load ptr, ptr %4, align 8, !tbaa !29
  %22 = getelementptr inbounds nuw %struct.MovTextContext, ptr %21, i32 0, i32 14
  %23 = load ptr, ptr %22, align 8, !tbaa !90
  %24 = load i32, ptr %6, align 4, !tbaa !42
  %25 = sext i32 %24 to i64
  %26 = getelementptr inbounds ptr, ptr %23, i64 %25
  %27 = load ptr, ptr %26, align 8, !tbaa !43
  %28 = call i32 @strcmp(ptr noundef %20, ptr noundef %27) #13
  %29 = icmp ne i32 %28, 0
  br i1 %29, label %34, label %30

30:                                               ; preds = %19
  %31 = load i32, ptr %6, align 4, !tbaa !42
  %32 = add nsw i32 %31, 1
  %33 = trunc i32 %32 to i16
  store i16 %33, ptr %3, align 2
  store i32 1, ptr %7, align 4
  br label %38

34:                                               ; preds = %19
  br label %35

35:                                               ; preds = %34
  %36 = load i32, ptr %6, align 4, !tbaa !42
  %37 = add nsw i32 %36, 1
  store i32 %37, ptr %6, align 4, !tbaa !42
  br label %12, !llvm.loop !113

38:                                               ; preds = %30, %18
  call void @llvm.lifetime.end.p0(i64 4, ptr %6) #11
  %39 = load i32, ptr %7, align 4
  switch i32 %39, label %43 [
    i32 2, label %40
    i32 1, label %41
  ]

40:                                               ; preds = %38
  store i16 1, ptr %3, align 2
  br label %41

41:                                               ; preds = %40, %38, %10
  %42 = load i16, ptr %3, align 2
  ret i16 %42

43:                                               ; preds = %38
  unreachable
}

; Function Attrs: nounwind uwtable
define internal void @mov_text_font_name_set(ptr noundef %0, ptr noundef %1) #1 {
  %3 = alloca ptr, align 8
  %4 = alloca ptr, align 8
  %5 = alloca i32, align 4
  %6 = alloca i32, align 4
  store ptr %0, ptr %3, align 8, !tbaa !29
  store ptr %1, ptr %4, align 8, !tbaa !43
  call void @llvm.lifetime.start.p0(i64 4, ptr %5) #11
  %7 = load ptr, ptr %3, align 8, !tbaa !29
  %8 = load ptr, ptr %4, align 8, !tbaa !43
  %9 = call zeroext i16 @find_font_id(ptr noundef %7, ptr noundef %8)
  %10 = zext i16 %9 to i32
  store i32 %10, ptr %5, align 4, !tbaa !42
  %11 = load ptr, ptr %3, align 8, !tbaa !29
  %12 = getelementptr inbounds nuw %struct.MovTextContext, ptr %11, i32 0, i32 7
  %13 = getelementptr inbounds nuw %struct.StyleBox, ptr %12, i32 0, i32 3
  %14 = load i16, ptr %13, align 2, !tbaa !108
  %15 = zext i16 %14 to i32
  %16 = load i32, ptr %5, align 4, !tbaa !42
  %17 = icmp eq i32 %15, %16
  br i1 %17, label %18, label %19

18:                                               ; preds = %2
  store i32 1, ptr %6, align 4
  br label %30

19:                                               ; preds = %2
  %20 = load ptr, ptr %3, align 8, !tbaa !29
  %21 = call i32 @mov_text_style_start(ptr noundef %20)
  %22 = icmp ne i32 %21, 0
  br i1 %22, label %23, label %29

23:                                               ; preds = %19
  %24 = load i32, ptr %5, align 4, !tbaa !42
  %25 = trunc i32 %24 to i16
  %26 = load ptr, ptr %3, align 8, !tbaa !29
  %27 = getelementptr inbounds nuw %struct.MovTextContext, ptr %26, i32 0, i32 7
  %28 = getelementptr inbounds nuw %struct.StyleBox, ptr %27, i32 0, i32 3
  store i16 %25, ptr %28, align 2, !tbaa !108
  br label %29

29:                                               ; preds = %23, %19
  store i32 0, ptr %6, align 4
  br label %30

30:                                               ; preds = %29, %18
  call void @llvm.lifetime.end.p0(i64 4, ptr %5) #11
  %31 = load i32, ptr %6, align 4
  switch i32 %31, label %33 [
    i32 0, label %32
    i32 1, label %32
  ]

32:                                               ; preds = %30, %30
  ret void

33:                                               ; preds = %30
  unreachable
}

; Function Attrs: nounwind uwtable
define internal void @mov_text_font_size_set(ptr noundef %0, i32 noundef %1) #1 {
  %3 = alloca ptr, align 8
  %4 = alloca i32, align 4
  store ptr %0, ptr %3, align 8, !tbaa !29
  store i32 %1, ptr %4, align 4, !tbaa !42
  %5 = load i32, ptr %4, align 4, !tbaa !42
  %6 = sitofp i32 %5 to double
  %7 = load ptr, ptr %3, align 8, !tbaa !29
  %8 = getelementptr inbounds nuw %struct.MovTextContext, ptr %7, i32 0, i32 16
  %9 = load double, ptr %8, align 8, !tbaa !72
  %10 = call nsz double @llvm.fmuladd.f64(double %6, double %9, double 5.000000e-01)
  %11 = fptosi double %10 to i32
  store i32 %11, ptr %4, align 4, !tbaa !42
  %12 = load ptr, ptr %3, align 8, !tbaa !29
  %13 = getelementptr inbounds nuw %struct.MovTextContext, ptr %12, i32 0, i32 7
  %14 = getelementptr inbounds nuw %struct.StyleBox, ptr %13, i32 0, i32 4
  %15 = load i8, ptr %14, align 8, !tbaa !107
  %16 = zext i8 %15 to i32
  %17 = load i32, ptr %4, align 4, !tbaa !42
  %18 = icmp eq i32 %16, %17
  br i1 %18, label %19, label %20

19:                                               ; preds = %2
  br label %30

20:                                               ; preds = %2
  %21 = load ptr, ptr %3, align 8, !tbaa !29
  %22 = call i32 @mov_text_style_start(ptr noundef %21)
  %23 = icmp ne i32 %22, 0
  br i1 %23, label %24, label %30

24:                                               ; preds = %20
  %25 = load i32, ptr %4, align 4, !tbaa !42
  %26 = trunc i32 %25 to i8
  %27 = load ptr, ptr %3, align 8, !tbaa !29
  %28 = getelementptr inbounds nuw %struct.MovTextContext, ptr %27, i32 0, i32 7
  %29 = getelementptr inbounds nuw %struct.StyleBox, ptr %28, i32 0, i32 4
  store i8 %26, ptr %29, align 8, !tbaa !107
  br label %30

30:                                               ; preds = %19, %24, %20
  ret void
}

; Function Attrs: nounwind uwtable
define internal void @mov_text_alpha_set(ptr noundef %0, i8 noundef zeroext %1) #1 {
  %3 = alloca ptr, align 8
  %4 = alloca i8, align 1
  store ptr %0, ptr %3, align 8, !tbaa !29
  store i8 %1, ptr %4, align 1, !tbaa !63
  %5 = load ptr, ptr %3, align 8, !tbaa !29
  %6 = getelementptr inbounds nuw %struct.MovTextContext, ptr %5, i32 0, i32 7
  %7 = getelementptr inbounds nuw %struct.StyleBox, ptr %6, i32 0, i32 5
  %8 = load i32, ptr %7, align 4, !tbaa !106
  %9 = and i32 %8, 255
  %10 = load i8, ptr %4, align 1, !tbaa !63
  %11 = zext i8 %10 to i32
  %12 = icmp eq i32 %9, %11
  br i1 %12, label %13, label %14

13:                                               ; preds = %2
  br label %30

14:                                               ; preds = %2
  %15 = load ptr, ptr %3, align 8, !tbaa !29
  %16 = call i32 @mov_text_style_start(ptr noundef %15)
  %17 = icmp ne i32 %16, 0
  br i1 %17, label %18, label %30

18:                                               ; preds = %14
  %19 = load ptr, ptr %3, align 8, !tbaa !29
  %20 = getelementptr inbounds nuw %struct.MovTextContext, ptr %19, i32 0, i32 7
  %21 = getelementptr inbounds nuw %struct.StyleBox, ptr %20, i32 0, i32 5
  %22 = load i32, ptr %21, align 4, !tbaa !106
  %23 = and i32 %22, -256
  %24 = load i8, ptr %4, align 1, !tbaa !63
  %25 = zext i8 %24 to i32
  %26 = or i32 %23, %25
  %27 = load ptr, ptr %3, align 8, !tbaa !29
  %28 = getelementptr inbounds nuw %struct.MovTextContext, ptr %27, i32 0, i32 7
  %29 = getelementptr inbounds nuw %struct.StyleBox, ptr %28, i32 0, i32 5
  store i32 %26, ptr %29, align 4, !tbaa !106
  br label %30

30:                                               ; preds = %13, %18, %14
  ret void
}

; Function Attrs: nounwind uwtable
define internal void @mov_text_color_set(ptr noundef %0, i32 noundef %1) #1 {
  %3 = alloca ptr, align 8
  %4 = alloca i32, align 4
  store ptr %0, ptr %3, align 8, !tbaa !29
  store i32 %1, ptr %4, align 4, !tbaa !42
  %5 = load ptr, ptr %3, align 8, !tbaa !29
  %6 = getelementptr inbounds nuw %struct.MovTextContext, ptr %5, i32 0, i32 7
  %7 = getelementptr inbounds nuw %struct.StyleBox, ptr %6, i32 0, i32 5
  %8 = load i32, ptr %7, align 4, !tbaa !106
  %9 = and i32 %8, -256
  %10 = load i32, ptr %4, align 4, !tbaa !42
  %11 = icmp eq i32 %9, %10
  br i1 %11, label %12, label %13

12:                                               ; preds = %2
  br label %29

13:                                               ; preds = %2
  %14 = load ptr, ptr %3, align 8, !tbaa !29
  %15 = call i32 @mov_text_style_start(ptr noundef %14)
  %16 = icmp ne i32 %15, 0
  br i1 %16, label %17, label %29

17:                                               ; preds = %13
  %18 = load i32, ptr %4, align 4, !tbaa !42
  %19 = and i32 %18, -256
  %20 = load ptr, ptr %3, align 8, !tbaa !29
  %21 = getelementptr inbounds nuw %struct.MovTextContext, ptr %20, i32 0, i32 7
  %22 = getelementptr inbounds nuw %struct.StyleBox, ptr %21, i32 0, i32 5
  %23 = load i32, ptr %22, align 4, !tbaa !106
  %24 = and i32 %23, 255
  %25 = or i32 %19, %24
  %26 = load ptr, ptr %3, align 8, !tbaa !29
  %27 = getelementptr inbounds nuw %struct.MovTextContext, ptr %26, i32 0, i32 7
  %28 = getelementptr inbounds nuw %struct.StyleBox, ptr %27, i32 0, i32 5
  store i32 %25, ptr %28, align 4, !tbaa !106
  br label %29

29:                                               ; preds = %12, %17, %13
  ret void
}

; Function Attrs: nounwind uwtable
define internal void @mov_text_style_set(ptr noundef %0, i8 noundef zeroext %1) #1 {
  %3 = alloca ptr, align 8
  %4 = alloca i8, align 1
  store ptr %0, ptr %3, align 8, !tbaa !29
  store i8 %1, ptr %4, align 1, !tbaa !63
  %5 = load ptr, ptr %3, align 8, !tbaa !29
  %6 = getelementptr inbounds nuw %struct.MovTextContext, ptr %5, i32 0, i32 7
  %7 = getelementptr inbounds nuw %struct.StyleBox, ptr %6, i32 0, i32 2
  %8 = load i8, ptr %7, align 4, !tbaa !105
  %9 = zext i8 %8 to i32
  %10 = load i8, ptr %4, align 1, !tbaa !63
  %11 = zext i8 %10 to i32
  %12 = and i32 %9, %11
  %13 = load i8, ptr %4, align 1, !tbaa !63
  %14 = zext i8 %13 to i32
  %15 = xor i32 %12, %14
  %16 = icmp ne i32 %15, 0
  br i1 %16, label %18, label %17

17:                                               ; preds = %2
  br label %32

18:                                               ; preds = %2
  %19 = load ptr, ptr %3, align 8, !tbaa !29
  %20 = call i32 @mov_text_style_start(ptr noundef %19)
  %21 = icmp ne i32 %20, 0
  br i1 %21, label %22, label %32

22:                                               ; preds = %18
  %23 = load i8, ptr %4, align 1, !tbaa !63
  %24 = zext i8 %23 to i32
  %25 = load ptr, ptr %3, align 8, !tbaa !29
  %26 = getelementptr inbounds nuw %struct.MovTextContext, ptr %25, i32 0, i32 7
  %27 = getelementptr inbounds nuw %struct.StyleBox, ptr %26, i32 0, i32 2
  %28 = load i8, ptr %27, align 4, !tbaa !105
  %29 = zext i8 %28 to i32
  %30 = or i32 %29, %24
  %31 = trunc i32 %30 to i8
  store i8 %31, ptr %27, align 4, !tbaa !105
  br label %32

32:                                               ; preds = %17, %22, %18
  ret void
}

; Function Attrs: nounwind uwtable
define internal void @mov_text_ass_style_set(ptr noundef %0, ptr noundef %1) #1 {
  %3 = alloca ptr, align 8
  %4 = alloca ptr, align 8
  %5 = alloca i8, align 1
  %6 = alloca i8, align 1
  %7 = alloca i32, align 4
  store ptr %0, ptr %3, align 8, !tbaa !29
  store ptr %1, ptr %4, align 8, !tbaa !29
  call void @llvm.lifetime.start.p0(i64 1, ptr %5) #11
  call void @llvm.lifetime.start.p0(i64 1, ptr %6) #11
  call void @llvm.lifetime.start.p0(i64 4, ptr %7) #11
  %8 = load ptr, ptr %4, align 8, !tbaa !29
  %9 = icmp ne ptr %8, null
  br i1 %9, label %10, label %78

10:                                               ; preds = %2
  %11 = load ptr, ptr %4, align 8, !tbaa !29
  %12 = getelementptr inbounds nuw %struct.ASSStyle, ptr %11, i32 0, i32 7
  %13 = load i32, ptr %12, align 4, !tbaa !82
  %14 = icmp ne i32 %13, 0
  %15 = xor i1 %14, true
  %16 = xor i1 %15, true
  %17 = zext i1 %16 to i32
  %18 = mul nsw i32 %17, 1
  %19 = load ptr, ptr %4, align 8, !tbaa !29
  %20 = getelementptr inbounds nuw %struct.ASSStyle, ptr %19, i32 0, i32 8
  %21 = load i32, ptr %20, align 8, !tbaa !83
  %22 = icmp ne i32 %21, 0
  %23 = xor i1 %22, true
  %24 = xor i1 %23, true
  %25 = zext i1 %24 to i32
  %26 = mul nsw i32 %25, 2
  %27 = or i32 %18, %26
  %28 = load ptr, ptr %4, align 8, !tbaa !29
  %29 = getelementptr inbounds nuw %struct.ASSStyle, ptr %28, i32 0, i32 9
  %30 = load i32, ptr %29, align 4, !tbaa !84
  %31 = icmp ne i32 %30, 0
  %32 = xor i1 %31, true
  %33 = xor i1 %32, true
  %34 = zext i1 %33 to i32
  %35 = mul nsw i32 %34, 4
  %36 = or i32 %27, %35
  %37 = trunc i32 %36 to i8
  store i8 %37, ptr %5, align 1, !tbaa !63
  %38 = load ptr, ptr %3, align 8, !tbaa !29
  %39 = load i8, ptr %5, align 1, !tbaa !63
  call void @mov_text_style_set(ptr noundef %38, i8 noundef zeroext %39)
  %40 = load ptr, ptr %4, align 8, !tbaa !29
  %41 = getelementptr inbounds nuw %struct.ASSStyle, ptr %40, i32 0, i32 3
  %42 = load i32, ptr %41, align 4, !tbaa !81
  %43 = and i32 %42, 16777215
  %44 = and i32 %43, 255
  %45 = shl i32 %44, 16
  %46 = load ptr, ptr %4, align 8, !tbaa !29
  %47 = getelementptr inbounds nuw %struct.ASSStyle, ptr %46, i32 0, i32 3
  %48 = load i32, ptr %47, align 4, !tbaa !81
  %49 = and i32 %48, 16777215
  %50 = and i32 %49, 65280
  %51 = or i32 %45, %50
  %52 = load ptr, ptr %4, align 8, !tbaa !29
  %53 = getelementptr inbounds nuw %struct.ASSStyle, ptr %52, i32 0, i32 3
  %54 = load i32, ptr %53, align 4, !tbaa !81
  %55 = and i32 %54, 16777215
  %56 = lshr i32 %55, 16
  %57 = and i32 %56, 255
  %58 = or i32 %51, %57
  %59 = shl i32 %58, 8
  store i32 %59, ptr %7, align 4, !tbaa !42
  %60 = load ptr, ptr %3, align 8, !tbaa !29
  %61 = load i32, ptr %7, align 4, !tbaa !42
  call void @mov_text_color_set(ptr noundef %60, i32 noundef %61)
  %62 = load ptr, ptr %4, align 8, !tbaa !29
  %63 = getelementptr inbounds nuw %struct.ASSStyle, ptr %62, i32 0, i32 3
  %64 = load i32, ptr %63, align 4, !tbaa !81
  %65 = lshr i32 %64, 24
  %66 = sub i32 255, %65
  %67 = trunc i32 %66 to i8
  store i8 %67, ptr %6, align 1, !tbaa !63
  %68 = load ptr, ptr %3, align 8, !tbaa !29
  %69 = load i8, ptr %6, align 1, !tbaa !63
  call void @mov_text_alpha_set(ptr noundef %68, i8 noundef zeroext %69)
  %70 = load ptr, ptr %3, align 8, !tbaa !29
  %71 = load ptr, ptr %4, align 8, !tbaa !29
  %72 = getelementptr inbounds nuw %struct.ASSStyle, ptr %71, i32 0, i32 2
  %73 = load i32, ptr %72, align 8, !tbaa !79
  call void @mov_text_font_size_set(ptr noundef %70, i32 noundef %73)
  %74 = load ptr, ptr %3, align 8, !tbaa !29
  %75 = load ptr, ptr %4, align 8, !tbaa !29
  %76 = getelementptr inbounds nuw %struct.ASSStyle, ptr %75, i32 0, i32 1
  %77 = load ptr, ptr %76, align 8, !tbaa !88
  call void @mov_text_font_name_set(ptr noundef %74, ptr noundef %77)
  br label %81

78:                                               ; preds = %2
  %79 = load ptr, ptr %3, align 8, !tbaa !29
  %80 = call i32 @mov_text_style_start(ptr noundef %79)
  br label %81

81:                                               ; preds = %78, %10
  call void @llvm.lifetime.end.p0(i64 4, ptr %7) #11
  call void @llvm.lifetime.end.p0(i64 1, ptr %6) #11
  call void @llvm.lifetime.end.p0(i64 1, ptr %5) #11
  ret void
}