; Function Attrs: nounwind uwtable
define internal fastcc void @mov_text_ass_style_set(ptr noundef %0, ptr noundef readonly captures(address_is_null) %1) unnamed_addr #1 {
  %.not = icmp eq ptr %1, null
  br i1 %.not, label %92, label %3

3:                                                ; preds = %2
  %4 = getelementptr inbounds nuw i8, ptr %1, i64 36
  %5 = load i32, ptr %4, align 4, !tbaa !54
  %6 = icmp ne i32 %5, 0
  %7 = zext i1 %6 to i8
  %8 = getelementptr inbounds nuw i8, ptr %1, i64 40
  %9 = load i32, ptr %8, align 8, !tbaa !55
  %.not18 = icmp eq i32 %9, 0
  %10 = select i1 %.not18, i8 0, i8 2
  %11 = or disjoint i8 %10, %7
  %12 = getelementptr inbounds nuw i8, ptr %1, i64 44
  %13 = load i32, ptr %12, align 4, !tbaa !56
  %.not19 = icmp eq i32 %13, 0
  %14 = select i1 %.not19, i8 0, i8 4
  %15 = or disjoint i8 %11, %14
  %16 = getelementptr inbounds nuw i8, ptr %0, i64 52
  %17 = load i8, ptr %16, align 4, !tbaa !96
  %18 = xor i8 %17, -1
  %19 = and i8 %15, %18
  %.not.i = icmp eq i8 %19, 0
  br i1 %.not.i, label %mov_text_style_set.exit, label %20

20:                                               ; preds = %3
  %21 = tail call fastcc i32 @mov_text_style_start(ptr noundef nonnull %0)
  %.not5.i = icmp eq i32 %21, 0
  br i1 %.not5.i, label %mov_text_style_set.exit, label %22

22:                                               ; preds = %20
  %23 = load i8, ptr %16, align 4, !tbaa !96
  %24 = or i8 %23, %15
  store i8 %24, ptr %16, align 4, !tbaa !96
  br label %mov_text_style_set.exit

mov_text_style_set.exit:                          ; preds = %3, %20, %22
  %25 = getelementptr inbounds nuw i8, ptr %1, i64 20
  %26 = load i32, ptr %25, align 4, !tbaa !53
  %27 = shl i32 %26, 16
  %28 = and i32 %27, 16711680
  %29 = and i32 %26, 65280
  %30 = or disjoint i32 %28, %29
  %31 = lshr i32 %26, 16
  %32 = and i32 %31, 255
  %33 = or disjoint i32 %30, %32
  %34 = shl nuw i32 %33, 8
  %35 = getelementptr inbounds nuw i8, ptr %0, i64 60
  %36 = load i32, ptr %35, align 4, !tbaa !97
  %37 = and i32 %36, -256
  %38 = icmp eq i32 %37, %34
  br i1 %38, label %mov_text_color_set.exit, label %39

39:                                               ; preds = %mov_text_style_set.exit
  %40 = tail call fastcc i32 @mov_text_style_start(ptr noundef nonnull %0)
  %.not.i20 = icmp eq i32 %40, 0
  %.pre = load i32, ptr %35, align 4, !tbaa !97
  br i1 %.not.i20, label %mov_text_color_set.exit, label %41

41:                                               ; preds = %39
  %42 = and i32 %.pre, 255
  %43 = or disjoint i32 %42, %34
  store i32 %43, ptr %35, align 4, !tbaa !97
  br label %mov_text_color_set.exit

mov_text_color_set.exit:                          ; preds = %mov_text_style_set.exit, %39, %41
  %44 = phi i32 [ %36, %mov_text_style_set.exit ], [ %.pre, %39 ], [ %43, %41 ]
  %45 = load i32, ptr %25, align 4, !tbaa !53
  %46 = xor i32 %45, -1
  %47 = lshr i32 %46, 24
  %48 = trunc nuw i32 %47 to i8
  %49 = trunc i32 %44 to i8
  %50 = icmp eq i8 %48, %49
  br i1 %50, label %mov_text_alpha_set.exit, label %51

51:                                               ; preds = %mov_text_color_set.exit
  %52 = tail call fastcc i32 @mov_text_style_start(ptr noundef nonnull %0)
  %.not.i21 = icmp eq i32 %52, 0
  br i1 %.not.i21, label %mov_text_alpha_set.exit, label %53

53:                                               ; preds = %51
  %54 = load i32, ptr %35, align 4, !tbaa !97
  %55 = and i32 %54, -256
  %56 = or disjoint i32 %55, %47
  store i32 %56, ptr %35, align 4, !tbaa !97
  br label %mov_text_alpha_set.exit

mov_text_alpha_set.exit:                          ; preds = %mov_text_color_set.exit, %51, %53
  %57 = getelementptr inbounds nuw i8, ptr %1, i64 16
  %58 = load i32, ptr %57, align 8, !tbaa !51
  %59 = sitofp i32 %58 to double
  %60 = getelementptr inbounds nuw i8, ptr %0, i64 1136
  %61 = load double, ptr %60, align 8, !tbaa !44
  %62 = tail call nsz double @llvm.fmuladd.f64(double %59, double %61, double 5.000000e-01)
  %63 = fptosi double %62 to i32
  %64 = getelementptr inbounds nuw i8, ptr %0, i64 56
  %65 = load i8, ptr %64, align 8, !tbaa !98
  %66 = zext i8 %65 to i32
  %67 = icmp eq i32 %66, %63
  br i1 %67, label %mov_text_font_size_set.exit, label %68

68:                                               ; preds = %mov_text_alpha_set.exit
  %69 = tail call fastcc i32 @mov_text_style_start(ptr noundef nonnull %0)
  %.not.i22 = icmp eq i32 %69, 0
  br i1 %.not.i22, label %mov_text_font_size_set.exit, label %70

70:                                               ; preds = %68
  %71 = trunc i32 %63 to i8
  store i8 %71, ptr %64, align 8, !tbaa !98
  br label %mov_text_font_size_set.exit

mov_text_font_size_set.exit:                      ; preds = %mov_text_alpha_set.exit, %68, %70
  %72 = getelementptr inbounds nuw i8, ptr %1, i64 8
  %73 = load ptr, ptr %72, align 8, !tbaa !61
  %.not.i.i = icmp eq ptr %73, null
  br i1 %.not.i.i, label %find_font_id.exit.i, label %.preheader.i.i

.preheader.i.i:                                   ; preds = %mov_text_font_size_set.exit
  %74 = getelementptr inbounds nuw i8, ptr %0, i64 1128
  %75 = load i32, ptr %74, align 8, !tbaa !62
  %.not1315.i.i = icmp sgt i32 %75, 0
  br i1 %.not1315.i.i, label %.lr.ph.i.i, label %find_font_id.exit.i

.lr.ph.i.i:                                       ; preds = %.preheader.i.i
  %76 = getelementptr inbounds nuw i8, ptr %0, i64 1120
  %77 = load ptr, ptr %76, align 8, !tbaa !63
  %wide.trip.count.i.i = zext nneg i32 %75 to i64
  br label %78

78:                                               ; preds = %85, %.lr.ph.i.i
  %indvars.iv.i.i = phi i64 [ 0, %.lr.ph.i.i ], [ %indvars.iv.next.i.i, %85 ]
  %79 = getelementptr inbounds nuw ptr, ptr %77, i64 %indvars.iv.i.i
  %80 = load ptr, ptr %79, align 8, !tbaa !66
  %81 = tail call i32 @strcmp(ptr noundef nonnull readonly dereferenceable(1) %73, ptr noundef nonnull dereferenceable(1) %80) #9
  %.not12.i.i = icmp eq i32 %81, 0
  br i1 %.not12.i.i, label %82, label %85

82:                                               ; preds = %78
  %83 = trunc i64 %indvars.iv.i.i to i16
  %84 = add i16 %83, 1
  br label %find_font_id.exit.i

85:                                               ; preds = %78
  %indvars.iv.next.i.i = add nuw nsw i64 %indvars.iv.i.i, 1
  %exitcond.not.i.i = icmp eq i64 %indvars.iv.next.i.i, %wide.trip.count.i.i
  br i1 %exitcond.not.i.i, label %find_font_id.exit.i, label %78, !llvm.loop !99

find_font_id.exit.i:                              ; preds = %85, %82, %.preheader.i.i, %mov_text_font_size_set.exit
  %.010.i.i = phi i16 [ 1, %mov_text_font_size_set.exit ], [ %84, %82 ], [ 1, %.preheader.i.i ], [ 1, %85 ]
  %86 = getelementptr inbounds nuw i8, ptr %0, i64 54
  %87 = load i16, ptr %86, align 2, !tbaa !100
  %88 = icmp eq i16 %87, %.010.i.i
  br i1 %88, label %mov_text_font_name_set.exit, label %89

89:                                               ; preds = %find_font_id.exit.i
  %90 = tail call fastcc i32 @mov_text_style_start(ptr noundef nonnull %0)
  %.not.i23 = icmp eq i32 %90, 0
  br i1 %.not.i23, label %mov_text_font_name_set.exit, label %91

91:                                               ; preds = %89
  store i16 %.010.i.i, ptr %86, align 2, !tbaa !100
  br label %mov_text_font_name_set.exit

92:                                               ; preds = %2
  %93 = tail call fastcc i32 @mov_text_style_start(ptr noundef %0)
  br label %mov_text_font_name_set.exit

mov_text_font_name_set.exit:                      ; preds = %91, %89, %find_font_id.exit.i, %92
  ret void
}